target datalayout = "e-m:e-p270:32:32-p271:32:32-p272:64:64-i64:64-i128:128-f80:128-n8:16:32:64-S128"
target triple = "x86_64-pc-linux-gnu"

%union.pthread_mutex_t = type { %struct.__pthread_mutex_s }
%struct.__pthread_mutex_s = type { i32, i32, i32, i32, i32, i16, i16, %struct.__pthread_internal_list }
%struct.__pthread_internal_list = type { ptr, ptr }
%struct.tMPI_Atomic = type { i32, [60 x i8] }
%union.pthread_cond_t = type { %struct.__pthread_cond_s }
%struct.__pthread_cond_s = type { %union.__atomic_wide_counter, %union.__atomic_wide_counter, [2 x i32], [2 x i32], i32, i32, [2 x i32] }
%union.__atomic_wide_counter = type { i64 }
%struct.tMPI_Thread_barrier_t = type { %struct.tMPI_Atomic, ptr, i32, i32, i32 }
%struct.tMPI_Thread_barrier = type { %struct.tMPI_Atomic, %union.pthread_mutex_t, %union.pthread_cond_t, i32, i32, i32 }

; Function Attrs: mustprogress nounwind uwtable
define noundef i32 @_Z24tMPI_Thread_barrier_initP21tMPI_Thread_barrier_ti(ptr noundef %0, i32 noundef %1) #0 {
  %3 = alloca i32, align 4
  %4 = alloca ptr, align 8
  %5 = alloca i32, align 4
  %6 = alloca i32, align 4
  store ptr %0, ptr %4, align 8
  store i32 %1, ptr %5, align 4
  %7 = load ptr, ptr %4, align 8
  %8 = icmp eq ptr %7, null
  br i1 %8, label %9, label %10

9:                                                ; preds = %2
  store i32 22, ptr %3, align 4
  br label %51

10:                                               ; preds = %2
  %11 = call noalias ptr @malloc(i64 noundef 168) #9
  %12 = load ptr, ptr %4, align 8
  %13 = getelementptr inbounds %struct.tMPI_Thread_barrier_t, ptr %12, i32 0, i32 1
  store ptr %11, ptr %13, align 8
  %14 = load ptr, ptr %4, align 8
  %15 = getelementptr inbounds %struct.tMPI_Thread_barrier_t, ptr %14, i32 0, i32 1
  %16 = load ptr, ptr %15, align 8
  %17 = icmp eq ptr %16, null
  br i1 %17, label %18, label %19

18:                                               ; preds = %10
  store i32 12, ptr %3, align 4
  br label %51

19:                                               ; preds = %10
  %20 = load ptr, ptr %4, align 8
  %21 = getelementptr inbounds %struct.tMPI_Thread_barrier_t, ptr %20, i32 0, i32 1
  %22 = load ptr, ptr %21, align 8
  %23 = getelementptr inbounds %struct.tMPI_Thread_barrier, ptr %22, i32 0, i32 1
  %24 = call i32 @pthread_mutex_init(ptr noundef %23, ptr noundef null) #8
  store i32 %24, ptr %6, align 4
  %25 = load i32, ptr %6, align 4
  %26 = icmp ne i32 %25, 0
  br i1 %26, label %27, label %29

27:                                               ; preds = %19
  %28 = load i32, ptr %6, align 4
  store i32 %28, ptr %3, align 4
  br label %51

29:                                               ; preds = %19
  %30 = load ptr, ptr %4, align 8
  %31 = getelementptr inbounds %struct.tMPI_Thread_barrier_t, ptr %30, i32 0, i32 1
  %32 = load ptr, ptr %31, align 8
  %33 = getelementptr inbounds %struct.tMPI_Thread_barrier, ptr %32, i32 0, i32 2
  %34 = call i32 @pthread_cond_init(ptr noundef %33, ptr noundef null) #8
  store i32 %34, ptr %6, align 4
  %35 = load i32, ptr %6, align 4
  %36 = icmp ne i32 %35, 0
  br i1 %36, label %37, label %39

37:                                               ; preds = %29
  %38 = load i32, ptr %6, align 4
  store i32 %38, ptr %3, align 4
  br label %51

39:                                               ; preds = %29
  %40 = load i32, ptr %5, align 4
  %41 = load ptr, ptr %4, align 8
  %42 = getelementptr inbounds %struct.tMPI_Thread_barrier_t, ptr %41, i32 0, i32 2
  store volatile i32 %40, ptr %42, align 8
  %43 = load i32, ptr %5, align 4
  %44 = load ptr, ptr %4, align 8
  %45 = getelementptr inbounds %struct.tMPI_Thread_barrier_t, ptr %44, i32 0, i32 3
  store volatile i32 %43, ptr %45, align 4
  %46 = load ptr, ptr %4, align 8
  %47 = getelementptr inbounds %struct.tMPI_Thread_barrier_t, ptr %46, i32 0, i32 4
  store volatile i32 0, ptr %47, align 8
  %48 = load ptr, ptr %4, align 8
  %49 = getelementptr inbounds %struct.tMPI_Thread_barrier_t, ptr %48, i32 0, i32 0
  %50 = getelementptr inbounds %struct.tMPI_Atomic, ptr %49, i32 0, i32 0
  store i32 1, ptr %50, align 8
  store i32 0, ptr %3, align 4
  br label %51

51:                                               ; preds = %39, %37, %27, %18, %9
  %52 = load i32, ptr %3, align 4
  ret i32 %52
}