; Function Attrs: mustprogress nounwind uwtable
define noundef i32 @_Z24tMPI_Thread_barrier_initP21tMPI_Thread_barrier_ti(ptr noundef %0, i32 noundef %1) local_unnamed_addr #1 {
  %3 = icmp eq ptr %0, null
  br i1 %3, label %19, label %4

4:                                                ; preds = %2
  %5 = tail call noalias dereferenceable_or_null(168) ptr @malloc(i64 noundef 168) #14
  %6 = getelementptr inbounds i8, ptr %0, i64 64
  store ptr %5, ptr %6, align 8
  %7 = icmp eq ptr %5, null
  br i1 %7, label %19, label %8

8:                                                ; preds = %4
  %9 = getelementptr inbounds i8, ptr %5, i64 64
  %10 = tail call i32 @pthread_mutex_init(ptr noundef nonnull %9, ptr noundef null) #13
  %.not = icmp eq i32 %10, 0
  br i1 %.not, label %11, label %19

11:                                               ; preds = %8
  %12 = load ptr, ptr %6, align 8
  %13 = getelementptr inbounds i8, ptr %12, i64 104
  %14 = tail call i32 @pthread_cond_init(ptr noundef nonnull %13, ptr noundef null) #13
  %.not19 = icmp eq i32 %14, 0
  br i1 %.not19, label %15, label %19

15:                                               ; preds = %11
  %16 = getelementptr inbounds i8, ptr %0, i64 72
  store volatile i32 %1, ptr %16, align 8
  %17 = getelementptr inbounds i8, ptr %0, i64 76
  store volatile i32 %1, ptr %17, align 4
  %18 = getelementptr inbounds i8, ptr %0, i64 80
  store volatile i32 0, ptr %18, align 8
  store i32 1, ptr %0, align 8
  br label %19

19:                                               ; preds = %11, %8, %4, %2, %15
  %.0 = phi i32 [ 0, %15 ], [ 22, %2 ], [ 12, %4 ], [ %10, %8 ], [ %14, %11 ]
  ret i32 %.0
}